; Function Attrs: mustprogress nounwind uwtable
define internal void @_ZNSt23_Sp_counted_ptr_inplaceIN12_GLOBAL__N_14NodeESaIvELN9__gnu_cxx12_Lock_policyE2EE10_M_disposeEv(ptr noundef nonnull readonly align 8 captures(none) dereferenceable(152) %0) unnamed_addr #9 align 2 personality ptr @__gxx_personality_v0 {
  %2 = getelementptr inbounds nuw i8, ptr %0, i64 120
  %.val1.i.i.i = load ptr, ptr %2, align 8, !tbaa !60
  tail call fastcc void @_ZNSt8_Rb_treeIPN12_GLOBAL__N_14NodeES2_St9_IdentityIS2_ENS0_10CmpNodePosESaIS2_EE8_M_eraseEPSt13_Rb_tree_nodeIS2_E(ptr noundef %.val1.i.i.i)
  %3 = getelementptr inbounds nuw i8, ptr %0, i64 72
  %.val.i.i.i = load ptr, ptr %3, align 8, !tbaa !60
  tail call fastcc void @_ZNSt8_Rb_treeIPN12_GLOBAL__N_14NodeES2_St9_IdentityIS2_ENS0_10CmpNodePosESaIS2_EE8_M_eraseEPSt13_Rb_tree_nodeIS2_E(ptr noundef %.val.i.i.i)
  ret void
}